(dp0
I1
(lp1
(F5.0
F-15.0
F-0.0
tp2
a(F6.01
F-15.0
F-0.0
tp3
a(F7.01
F-12.764336585998535
F0.7285360097885132
tp4
a(F8.01
F-8.95179271697998
F-0.8616031408309937
tp5
a(F9.0
F-8.538630485534668
F-2.5048792362213135
tp6
a(F10.0
F-7.3420939445495605
F-4.002320289611816
tp7
a(F11.01
F-7.317998886108398
F-4.611034393310547
tp8
a(F12.01
F-7.317998886108398
F-4.764427661895752
tp9
a(F13.01
F-7.314603328704834
F-4.660482883453369
tp10
a(F14.0
F-7.312302589416504
F-4.751856327056885
tp11
a(F14.02
F-7.312302589416504
F-4.751856327056885
tp12
a(F15.0
F-7.312302589416504
F-4.751856327056885
tp13
a(F16.01
F-7.312302589416504
F-4.751856327056885
tp14
a(F17.01
F-7.312302589416504
F-4.751856327056885
tp15
a(F18.01
F-7.25897216796875
F-4.374117374420166
tp16
a(F19.0
F-7.25897216796875
F-4.374117374420166
tp17
a(F20.01
F-7.25897216796875
F-4.374117374420166
tp18
a(F21.01
F-7.25897216796875
F-4.374117374420166
tp19
a(F22.01
F-7.25897216796875
F-4.374117374420166
tp20
a(F23.02
F-7.25897216796875
F-4.374117374420166
tp21
a(F24.0
F-7.25897216796875
F-4.374117374420166
tp22
a(F25.01
F-7.25897216796875
F-4.374117374420166
tp23
a(F26.01
F-7.25897216796875
F-4.374117374420166
tp24
a(F27.01
F-7.25897216796875
F-4.374117374420166
tp25
a(F28.0
F-7.25897216796875
F-4.365501403808594
tp26
a(F29.01
F-7.25897216796875
F-4.4088335037231445
tp27
a(F30.01
F-8.306017875671387
F-3.851064443588257
tp28
a(F31.02
F-9.232476234436035
F-4.686764240264893
tp29
a(F32.02
F-9.29131031036377
F-4.888028621673584
tp30
a(F33.0
F-9.29131031036377
F-4.888028621673584
tp31
a(F34.01
F-9.29131031036377
F-4.888028621673584
tp32
a(F35.01
F-9.29131031036377
F-4.888028621673584
tp33
a(F36.01
F-9.29131031036377
F-4.888028621673584
tp34
a(F37.02
F-9.29131031036377
F-4.888028621673584
tp35
a(F38.0
F-8.6508207321167
F-4.309525966644287
tp36
a(F39.01
F-9.243645668029785
F-4.28948450088501
tp37
a(F40.01
F-7.927724361419678
F-3.848482131958008
tp38
a(F41.01
F-7.169279098510742
F-3.973348617553711
tp39
a(F42.0
F-7.300105094909668
F-4.669231414794922
tp40
a(F43.0
F-7.300105094909668
F-4.289130210876465
tp41
a(F44.01
F-7.300105094909668
F-4.480802536010742
tp42
a(F45.01
F-8.057250022888184
F-3.9490623474121094
tp43
a(F46.02
F-7.912236213684082
F-3.952782154083252
tp44
a(F47.0
F-8.181659698486328
F-3.952782154083252
tp45
a(F48.01
F-8.061192512512207
F-3.952782154083252
tp46
a(F49.01
F-8.061192512512207
F-3.952782154083252
tp47
a(F50.01
F-8.061192512512207
F-3.952782154083252
tp48
a(F51.0
F-8.061192512512207
F-3.952782154083252
tp49
a(F52.0
F-8.061192512512207
F-3.952782154083252
tp50
a(F53.01
F-7.531103134155273
F-3.7727553844451904
tp51
a(F54.01
F-7.274421691894531
F-4.619488716125488
tp52
a(F55.01
F-7.274421691894531
F-4.619488716125488
tp53
a(F56.0
F-7.274421691894531
F-4.619488716125488
tp54
a(F57.01
F-7.052692890167236
F-4.126740455627441
tp55
a(F58.01
F-8.126174926757812
F-4.152109622955322
tp56
a(F59.01
F-8.62716293334961
F-4.2656989097595215
tp57
a(F60.02
F-9.173726081848145
F-4.766330242156982
tp58
a(F61.0
F-9.173726081848145
F-4.766330242156982
tp59
a(F62.01
F-9.173726081848145
F-4.766330242156982
tp60
a(F63.01
F-8.911613464355469
F-4.593481063842773
tp61
a(F64.01
F-9.305998802185059
F-4.555332183837891
tp62
a(F65.0
F-9.305998802185059
F-4.555332183837891
tp63
a(F66.0
F-9.305998802185059
F-4.555332183837891
tp64
a(F67.01
F-9.305998802185059
F-4.555332183837891
tp65
a(F68.01
F-9.305998802185059
F-4.555332183837891
tp66
a(F69.02
F-9.305998802185059
F-4.555332183837891
tp67
a(F70.0
F-9.305998802185059
F-4.555332183837891
tp68
a(F71.01
F-9.305998802185059
F-4.555332183837891
tp69
a(F72.01
F-9.305998802185059
F-4.555332183837891
tp70
a(F73.01
F-9.305998802185059
F-4.555332183837891
tp71
a(F74.0
F-9.305998802185059
F-4.555332183837891
tp72
a(F75.0
F-9.305998802185059
F-4.555332183837891
tp73
a(F76.01
F-9.305998802185059
F-4.555332183837891
tp74
a(F77.01
F-9.305998802185059
F-4.555332183837891
tp75
a(F78.01
F-9.305998802185059
F-4.555332183837891
tp76
a(F79.0
F-9.305998802185059
F-4.555332183837891
tp77
a(F80.01
F-9.305998802185059
F-4.555332183837891
tp78
a(F81.01
F-9.305998802185059
F-4.555332183837891
tp79
a(F82.01
F-9.305998802185059
F-4.555332183837891
tp80
a(F83.02
F-9.305998802185059
F-4.555332183837891
tp81
a(F84.0
F-9.268412590026855
F-4.837759017944336
tp82
a(F85.01
F-8.582240104675293
F-4.427234172821045
tp83
a(F86.01
F-7.846376419067383
F-3.8184990882873535
tp84
a(F87.01
F-4.591236591339111
F-5.434320449829102
tp85
a(F88.0
F-3.870382308959961
F-5.97935152053833
tp86
a(F89.0
F-3.870382308959961
F-5.97935152053833
tp87
a(F90.01
F-4.203474521636963
F-5.371063232421875
tp88
a(F91.01
F-4.203474521636963
F-5.371063232421875
tp89
a(F92.01
F-4.203474521636963
F-5.371063232421875
tp90
a(F93.0
F-4.203474521636963
F-5.371063232421875
tp91
a(F94.01
F-4.458705902099609
F-4.442409992218018
tp92
a(F95.01
F-4.458705902099609
F-4.442409992218018
tp93
a(F96.01
F-5.928449630737305
F-4.219075679779053
tp94
a(F97.0
F-7.10554313659668
F-4.322449207305908
tp95
a(F97.02
F-7.10554313659668
F-4.322449207305908
tp96
a(F98.0
F-7.10554313659668
F-4.425076007843018
tp97
a(F99.01
F-7.10554313659668
F-4.425076007843018
tp98
a(F100.01
F-7.10554313659668
F-4.425076007843018
tp99
a(F101.01
F-7.10554313659668
F-4.425076007843018
tp100
a(F102.01
F-7.10554313659668
F-4.425076007843018
tp101
a(F103.0
F-7.10554313659668
F-4.425076007843018
tp102
a(F104.01
F-7.10554313659668
F-4.425076007843018
tp103
a(F105.0
F-7.10554313659668
F-4.425076007843018
tp104
a(F106.02
F-7.10554313659668
F-4.425076007843018
tp105
a(F107.0
F-7.10554313659668
F-4.425076007843018
tp106
a(F108.01
F-7.10554313659668
F-4.425076007843018
tp107
a(F109.01
F-7.10554313659668
F-4.425076007843018
tp108
a(F110.02
F-7.10554313659668
F-4.425076007843018
tp109
a(F111.0
F-7.10554313659668
F-4.425076007843018
tp110
a(F112.0
F-7.10554313659668
F-4.425076007843018
tp111
a(F113.01
F-7.10554313659668
F-4.425076007843018
tp112
a(F114.01
F-7.10554313659668
F-4.425076007843018
tp113
a(F116.0
F-7.10554313659668
F-4.425076007843018
tp114
a(F117.0
F-7.10554313659668
F-4.425076007843018
tp115
a(F118.01
F-7.10554313659668
F-4.425076007843018
tp116
a(F119.01
F-7.10554313659668
F-4.425076007843018
tp117
a(F121.0
F-7.10554313659668
F-4.425076007843018
tp118
a(F122.01
F-7.10554313659668
F-4.425076007843018
tp119
a(F123.01
F-7.10554313659668
F-4.425076007843018
tp120
a(F124.01
F-7.10554313659668
F-4.425076007843018
tp121
a(F125.0
F-7.10554313659668
F-4.425076007843018
tp122
a(F126.0
F-7.10554313659668
F-4.425076007843018
tp123
a(F127.01
F-7.10554313659668
F-4.425076007843018
tp124
a(F128.01
F-7.10554313659668
F-4.425076007843018
tp125
a(F129.01
F-7.10554313659668
F-4.425076007843018
tp126
a(F130.0
F-7.10554313659668
F-4.425076007843018
tp127
a(F131.01
F-7.10554313659668
F-4.425076007843018
tp128
a(F132.01
F-7.10554313659668
F-4.425076007843018
tp129
a(F133.01
F-7.10554313659668
F-4.425076007843018
tp130
a(F134.0
F-7.10554313659668
F-4.425076007843018
tp131
a(F135.0
F-7.10554313659668
F-4.425076007843018
tp132
a(F136.01
F-7.10554313659668
F-4.425076007843018
tp133
a(F137.01
F-7.10554313659668
F-4.425076007843018
tp134
asI2
(lp135
(F5.0
F-10.0
F-0.0
tp136
a(F6.01
F-10.0
F-0.0
tp137
a(F7.01
F-10.0
F-0.0
tp138
a(F8.01
F-10.0
F-0.0
tp139
a(F9.0
F-10.0
F-0.0
tp140
a(F10.0
F-10.0
F-0.0
tp141
a(F11.01
F-10.0
F-0.0
tp142
a(F12.01
F-10.0
F-0.0
tp143
a(F13.01
F-10.0
F-0.0
tp144
a(F14.0
F-10.0
F-0.0
tp145
a(F15.0
F-10.0
F-0.0
tp146
a(F16.01
F-10.0
F-0.0
tp147
a(F17.01
F-10.0
F-0.0
tp148
a(F18.02
F-10.0
F-0.0
tp149
a(F19.0
F-10.0
F-0.0
tp150
a(F20.01
F-10.0
F-0.0
tp151
a(F21.01
F-10.0
F-0.0
tp152
a(F22.01
F-10.0
F-0.0
tp153
a(F23.02
F-10.0
F-0.0
tp154
a(F24.0
F-10.0
F-0.0
tp155
a(F25.01
F-10.0
F-0.0
tp156
a(F26.01
F-10.0
F-0.0
tp157
a(F27.01
F-10.0
F-0.0
tp158
a(F28.0
F-10.0
F-0.0
tp159
a(F29.01
F-10.0
F-0.0
tp160
a(F30.01
F-10.0
F-0.0
tp161
a(F31.02
F-10.0
F-0.0
tp162
a(F32.0
F-10.0
F-0.0
tp163
a(F32.02
F-10.0
F-0.0
tp164
a(F33.0
F-10.0
F-0.0
tp165
a(F34.01
F-10.0
F-0.0
tp166
a(F35.01
F-10.0
F-0.0
tp167
a(F36.01
F-10.0
F-0.0
tp168
a(F37.0
F-10.0
F-0.0
tp169
a(F38.0
F-10.0
F-0.0
tp170
a(F39.01
F-10.0
F-0.0
tp171
a(F40.01
F-10.0
F-0.0
tp172
a(F41.02
F-10.0
F-0.0
tp173
a(F42.01
F-10.0
F-0.0
tp174
a(F43.01
F-10.0
F-0.0
tp175
a(F44.01
F-10.0
F-0.0
tp176
a(F45.01
F-10.0
F-0.0
tp177
a(F46.02
F-10.0
F-0.0
tp178
a(F47.0
F-10.0
F-0.0
tp179
a(F48.01
F-10.0
F-0.0
tp180
a(F49.01
F-10.0
F-0.0
tp181
a(F50.01
F-10.0
F-0.0
tp182
a(F51.0
F-10.0
F-0.0
tp183
a(F52.0
F-10.0
F-0.0
tp184
a(F53.01
F-10.0
F-0.0
tp185
a(F54.01
F-10.0
F-0.0
tp186
a(F55.02
F-10.0
F-0.0
tp187
a(F56.0
F-10.0
F-0.0
tp188
a(F57.01
F-10.0
F-0.0
tp189
a(F58.01
F-10.0
F-0.0
tp190
a(F59.01
F-10.0
F-0.0
tp191
a(F60.0
F-10.0
F-0.0
tp192
a(F61.0
F-10.0
F-0.0
tp193
a(F62.01
F-10.0
F-0.0
tp194
a(F63.01
F-10.0
F-0.0
tp195
a(F64.01
F-10.0
F-0.0
tp196
a(F65.0
F-9.785679817199707
F-1.3039337396621704
tp197
a(F66.01
F-8.937716484069824
F-2.665423631668091
tp198
a(F67.01
F-7.664577484130859
F-2.900817632675171
tp199
a(F68.01
F-9.888080596923828
F-3.9047839641571045
tp200
a(F69.0
F-10.279884338378906
F-3.928098440170288
tp201
a(F69.02
F-10.279884338378906
F-3.928098440170288
tp202
a(F70.0
F-10.279884338378906
F-3.928098440170288
tp203
a(F71.01
F-10.279884338378906
F-3.928098440170288
tp204
a(F72.01
F-10.177177429199219
F-3.9245076179504395
tp205
a(F73.01
F-10.076656341552734
F-3.4692656993865967
tp206
a(F74.0
F-10.183499336242676
F-3.9197323322296143
tp207
a(F75.01
F-10.183499336242676
F-3.9197323322296143
tp208
a(F76.01
F-10.405091285705566
F-3.653808355331421
tp209
a(F77.01
F-9.502070426940918
F-3.443829298019409
tp210
a(F78.02
F-8.2024564743042
F-4.162958145141602
tp211
a(F79.0
F-8.2024564743042
F-4.162958145141602
tp212
a(F80.01
F-8.2024564743042
F-4.162958145141602
tp213
a(F81.01
F-8.2024564743042
F-4.162958145141602
tp214
a(F82.01
F-8.2024564743042
F-4.162958145141602
tp215
a(F83.0
F-8.2024564743042
F-4.162958145141602
tp216
a(F84.0
F-8.2024564743042
F-4.162958145141602
tp217
a(F85.01
F-8.2024564743042
F-4.162958145141602
tp218
a(F86.01
F-8.2024564743042
F-4.162958145141602
tp219
a(F87.01
F-8.2024564743042
F-4.162958145141602
tp220
a(F88.0
F-8.2024564743042
F-4.162958145141602
tp221
a(F89.0
F-8.2024564743042
F-4.162958145141602
tp222
a(F90.01
F-8.2024564743042
F-4.162958145141602
tp223
a(F91.01
F-8.2024564743042
F-4.162958145141602
tp224
a(F92.02
F-8.2024564743042
F-4.162958145141602
tp225
a(F93.0
F-8.2024564743042
F-4.162958145141602
tp226
a(F94.01
F-8.2024564743042
F-4.162958145141602
tp227
a(F95.01
F-8.2024564743042
F-4.162958145141602
tp228
a(F96.01
F-8.2024564743042
F-4.162958145141602
tp229
a(F97.0
F-8.2024564743042
F-4.162958145141602
tp230
a(F98.0
F-8.2024564743042
F-4.162958145141602
tp231
a(F99.01
F-8.2024564743042
F-4.162958145141602
tp232
a(F100.01
F-8.2024564743042
F-4.162958145141602
tp233
a(F101.02
F-8.2024564743042
F-4.162958145141602
tp234
a(F102.01
F-8.2024564743042
F-4.162958145141602
tp235
a(F103.01
F-8.2024564743042
F-4.162958145141602
tp236
a(F104.01
F-8.859794616699219
F-3.6050143241882324
tp237
a(F105.0
F-6.871852397918701
F-3.9472784996032715
tp238
a(F106.0
F-6.871852397918701
F-3.9472784996032715
tp239
a(F107.0
F-4.808984279632568
F-4.167032718658447
tp240
a(F108.01
F-3.265432119369507
F-4.877685070037842
tp241
a(F109.01
F-3.265432119369507
F-4.877685070037842
tp242
a(F110.02
F-3.265432119369507
F-4.877685070037842
tp243
a(F111.0
F-3.265432119369507
F-4.877685070037842
tp244
a(F112.01
F-3.265432119369507
F-4.877685070037842
tp245
a(F113.01
F-3.265432119369507
F-4.877685070037842
tp246
a(F114.01
F-3.265432119369507
F-4.877685070037842
tp247
a(F116.0
F-3.265432119369507
F-4.877685070037842
tp248
a(F117.01
F-3.265432119369507
F-4.877685070037842
tp249
a(F118.01
F-3.265432119369507
F-4.877685070037842
tp250
a(F119.01
F-3.265432119369507
F-4.877685070037842
tp251
a(F120.0
F-3.265432119369507
F-4.877685070037842
tp252
a(F121.0
F-3.265432119369507
F-4.877685070037842
tp253
a(F122.01
F-3.265432119369507
F-4.877685070037842
tp254
a(F123.01
F-3.265432119369507
F-4.877685070037842
tp255
a(F124.01
F-3.265432119369507
F-4.877685070037842
tp256
a(F125.0
F-3.265432119369507
F-4.877685070037842
tp257
a(F126.01
F-3.265432119369507
F-4.877685070037842
tp258
a(F127.01
F-3.265432119369507
F-4.877685070037842
tp259
a(F128.01
F-3.265432119369507
F-4.877685070037842
tp260
a(F129.02
F-3.265432119369507
F-4.877685070037842
tp261
a(F130.0
F-3.265432119369507
F-4.877685070037842
tp262
a(F131.01
F-3.265432119369507
F-4.877685070037842
tp263
a(F132.01
F-3.265432119369507
F-4.877685070037842
tp264
a(F133.01
F-3.265432119369507
F-4.877685070037842
tp265
a(F134.0
F-3.265432119369507
F-4.877685070037842
tp266
a(F135.0
F-3.265432119369507
F-4.877685070037842
tp267
a(F136.01
F-3.265432119369507
F-4.877685070037842
tp268
a(F137.01
F-3.265432119369507
F-4.877685070037842
tp269
asI3
(lp270
(F5.0
F-5.0
F-0.0
tp271
a(F6.01
F-5.0
F-0.0
tp272
a(F7.01
F-5.0
F-0.0
tp273
a(F8.01
F-5.0
F-0.0
tp274
a(F9.0
F-5.0
F-0.0
tp275
a(F10.0
F-5.0
F-0.0
tp276
a(F11.01
F-5.0
F-0.0
tp277
a(F12.01
F-5.0
F-0.0
tp278
a(F13.01
F-5.0
F-0.0
tp279
a(F14.0
F-5.0
F-0.0
tp280
a(F15.0
F-5.0
F-0.0
tp281
a(F16.01
F-5.0
F-0.0
tp282
a(F17.01
F-5.0
F-0.0
tp283
a(F18.02
F-5.0
F-0.0
tp284
a(F19.0
F-5.0
F-0.0
tp285
a(F20.01
F-5.0
F-0.0
tp286
a(F21.01
F-5.0
F-0.0
tp287
a(F22.01
F-5.0
F-0.0
tp288
a(F23.02
F-5.0
F-0.0
tp289
a(F24.0
F-5.0
F-0.0
tp290
a(F25.01
F-5.0
F-0.0
tp291
a(F26.01
F-5.0
F-0.0
tp292
a(F27.01
F-5.0
F-0.0
tp293
a(F28.0
F-5.0
F-0.0
tp294
a(F29.01
F-5.0
F-0.0
tp295
a(F30.01
F-5.0
F-0.0
tp296
a(F31.02
F-5.0
F-0.0
tp297
a(F32.0
F-5.0
F-0.0
tp298
a(F32.02
F-5.0
F-0.0
tp299
a(F33.0
F-5.0
F-0.0
tp300
a(F34.01
F-5.0
F-0.0
tp301
a(F35.01
F-5.0
F-0.0
tp302
a(F36.01
F-5.0
F-0.0
tp303
a(F37.0
F-5.0
F-0.0
tp304
a(F38.0
F-5.0
F-0.0
tp305
a(F39.01
F-5.0
F-0.0
tp306
a(F40.01
F-5.0
F-0.0
tp307
a(F41.02
F-5.0
F-0.0
tp308
a(F42.01
F-5.0
F-0.0
tp309
a(F43.01
F-5.0
F-0.0
tp310
a(F44.01
F-5.0
F-0.0
tp311
a(F45.01
F-5.0
F-0.0
tp312
a(F46.02
F-5.0
F-0.0
tp313
a(F47.0
F-5.0
F-0.0
tp314
a(F48.01
F-5.0
F-0.0
tp315
a(F49.01
F-5.0
F-0.0
tp316
a(F50.01
F-5.0
F-0.0
tp317
a(F51.0
F-5.0
F-0.0
tp318
a(F52.0
F-5.0
F-0.0
tp319
a(F53.01
F-5.0
F-0.0
tp320
a(F54.01
F-5.0
F-0.0
tp321
a(F55.02
F-5.0
F-0.0
tp322
a(F56.0
F-5.0
F-0.0
tp323
a(F57.01
F-5.0
F-0.0
tp324
a(F58.01
F-5.0
F-0.0
tp325
a(F59.01
F-5.0
F-0.0
tp326
a(F60.0
F-5.0
F-0.0
tp327
a(F61.0
F-5.0
F-0.0
tp328
a(F62.01
F-5.0
F-0.0
tp329
a(F63.01
F-5.0
F-0.0
tp330
a(F64.01
F-5.0
F-0.0
tp331
a(F65.0
F-5.0
F-0.0
tp332
a(F66.01
F-5.0
F-0.0
tp333
a(F67.01
F-5.0
F-0.0
tp334
a(F68.01
F-5.0
F-0.0
tp335
a(F69.0
F-5.0
F-0.0
tp336
a(F69.02
F-5.0
F-0.0
tp337
a(F70.01
F-5.0
F-0.0
tp338
a(F71.01
F-5.0
F-0.0
tp339
a(F72.01
F-5.0
F-0.0
tp340
a(F73.01
F-5.0
F-0.0
tp341
a(F74.0
F-5.0
F-0.0
tp342
a(F75.01
F-5.0
F-0.0
tp343
a(F76.01
F-5.0
F-0.0
tp344
a(F77.01
F-5.0
F-0.0
tp345
a(F78.02
F-5.0
F-0.0
tp346
a(F79.0
F-5.0
F-0.0
tp347
a(F80.01
F-5.0
F-0.0
tp348
a(F81.01
F-5.0
F-0.0
tp349
a(F82.01
F-5.0
F-0.0
tp350
a(F83.0
F-5.0
F-0.0
tp351
a(F84.0
F-5.0
F-0.0
tp352
a(F85.01
F-5.0
F-0.0
tp353
a(F86.01
F-5.0
F-0.0
tp354
a(F87.01
F-5.0
F-0.0
tp355
a(F88.0
F-5.0
F-0.0
tp356
a(F89.01
F-5.0
F-0.0
tp357
a(F90.01
F-5.0
F-0.0
tp358
a(F91.01
F-5.0
F-0.0
tp359
a(F92.02
F-5.0
F-0.0
tp360
a(F93.0
F-5.0
F-0.0
tp361
a(F94.01
F-5.0
F-0.0
tp362
a(F95.01
F-5.0
F-0.0
tp363
a(F96.01
F-5.0
F-0.0
tp364
a(F97.0
F-5.0
F-0.0
tp365
a(F98.0
F-5.0
F-0.0
tp366
a(F99.01
F-5.0
F-0.0
tp367
a(F100.01
F-5.0
F-0.0
tp368
a(F101.02
F-5.0
F-0.0
tp369
a(F102.01
F-5.0
F-0.0
tp370
a(F103.01
F-5.0
F-0.0
tp371
a(F104.01
F-5.0
F-0.0
tp372
a(F105.0
F-5.0
F-0.0
tp373
a(F106.0
F-5.0
F-0.0
tp374
a(F107.0
F-5.0
F-0.0
tp375
a(F108.01
F-5.0
F-0.0
tp376
a(F109.01
F-5.0
F-0.0
tp377
a(F110.02
F-5.0
F-0.0
tp378
a(F111.0
F-5.0
F-0.0
tp379
a(F112.01
F-5.0
F-0.0
tp380
a(F113.01
F-5.0
F-0.0
tp381
a(F114.01
F-5.0
F-0.0
tp382
a(F116.0
F-5.0
F-0.0
tp383
a(F117.01
F-5.0
F-0.0
tp384
a(F118.01
F-5.0
F-0.0
tp385
a(F119.01
F-5.0
F-0.0
tp386
a(F120.0
F-5.0
F-0.0
tp387
a(F121.0
F-5.0
F-0.0
tp388
a(F122.01
F-5.0
F-0.0
tp389
a(F123.01
F-5.0
F-0.0
tp390
a(F124.01
F-5.0
F-0.0
tp391
a(F125.0
F-5.0
F-0.0
tp392
a(F126.01
F-5.0
F-0.0
tp393
a(F127.01
F-5.0
F-0.0
tp394
a(F128.01
F-5.0
F-0.0
tp395
a(F129.02
F-5.0
F-0.0
tp396
a(F130.0
F-5.0
F-0.0
tp397
a(F131.01
F-5.0
F-0.0
tp398
a(F132.01
F-5.0
F-0.0
tp399
a(F133.01
F-5.0
F-0.0
tp400
a(F134.0
F-5.0
F-0.0
tp401
a(F135.0
F-5.0
F-0.0
tp402
a(F136.01
F-5.0
F-0.0
tp403
a(F137.01
F-5.0
F-0.0
tp404
as.