(lp0
(F9.2
I1
S'lavalR'
p1
I1
tp2
a(F30.56
I1
g1
I0
tp3
a(F30.65
I1
S'lavalL'
p4
I1
tp5
a(F37.62
I1
g4
I0
tp6
a(F37.69
I1
g1
I1
tp7
a(F38.85
I1
g1
I0
tp8
a(F38.93
I1
g4
I1
tp9
a(F39.65
I1
g4
I0
tp10
a(F39.71
I1
g1
I1
tp11
a(F40.42
I1
g1
I0
tp12
a(F40.78
I1
g1
I1
tp13
a(F52.45
I1
g1
I0
tp14
a(F52.78
I1
g1
I1
tp15
a(F59.4
I1
g1
I0
tp16
a(F59.57
I1
g4
I1
tp17
a(F62.48
I1
g4
I0
tp18
a(F63.11
I1
g4
I1
tp19
a(F83.64
I1
g4
I0
tp20
a(F83.84
I1
g4
I1
tp21
a(F84.66
I1
g4
I0
tp22
a(F84.73
I1
g1
I1
tp23
a(F85.48
I1
g1
I0
tp24
a(F85.75
I1
g1
I1
tp25
a(F86.6
I1
g1
I0
tp26
a(F86.75
I1
S'oilPump'
p27
I1
tp28
a(F86.92
I1
g27
I0
tp29
a(F87.07
I1
S'scale'
p30
I1
tp31
a(F93.42
I1
g30
I0
tp32
a(F96.55
I1
g1
I1
tp33
a(F67.05
I2
g1
I1
tp34
a(F67.21
I2
g1
I0
tp35
a(F67.25
I2
g4
I1
tp36
a(F67.6
I2
g4
I0
tp37
a(F67.72
I2
g4
I1
tp38
a(F76.3
I2
g4
I0
tp39
a(F76.73
I2
g4
I1
tp40
a(F77.13
I2
g4
I0
tp41
a(F77.18
I2
g1
I1
tp42
a(F103.26
I2
g1
I0
tp43
a(F104.03
I2
g1
I1
tp44
a(F106.2
I2
g1
I0
tp45
a.