(lp0
(F18.5
I1
S'Takis'
p1
S'hand_matPile'
p2
Vloader
p3
(lp4
Vserving_mat
p5
atp6
a(F31.25
I2
S'Anna'
p7
S'can_pulp'
p8
g3
(lp9
Vscooping_pulp
p10
aVgetting_pulp[-1]
p11
atp12
a(F38.82
I2
S'Anna'
p13
S'canful_mat'
p14
g3
(lp15
tp16
a(F38.92
I1
S'Takis'
p17
S'hand_mat'
p18
g3
(lp19
Vfilling_mat*
p20
aVscore[15]
p21
atp22
a(F38.92
I2
S'Anna'
p23
g14
g3
g19
tp24
a(F43.18
I2
S'Anna'
p25
S'hand_mat'
p26
g3
(lp27
Vpicking_mat
p28
atp29
a(F64.46
I1
S'Takis'
p30
S'hand_matPile'
p31
g3
(lp32
g5
atp33
a(F68.21
I2
S'Anna'
p34
S'can_pulp'
p35
g3
(lp36
g10
ag11
atp37
a(F74.48
I1
S'Takis'
p38
S'hand_mat'
p39
g3
(lp40
tp41
a(F76.04
I2
S'Anna'
p42
S'canful_mat'
p43
g3
(lp44
tp45
a(F77.64
I2
S'Anna'
p46
S'canful_mat'
p47
g3
(lp48
tp49
a(F77.73
I1
S'Takis'
p50
S'hand_mat'
p51
g3
(lp52
g20
ag21
atp53
a(F77.73
I2
S'Anna'
p54
g47
g3
g52
tp55
a(F84.0
I2
S'Anna'
p56
S'hand_mat'
p57
g3
(lp58
g28
atp59
a(F89.43
I1
S'Takis'
p60
S'hand_mat'
p61
g3
(lp62
g28
atp63
a(F98.2
I2
S'Anna'
p64
S'mat_trayR'
p65
VpressR
p66
(lp67
Vloading_pressR[3]
p68
aVerror0_pressR
p69
aVdropping_mat
p70
atp71
a(F107.8
I1
S'Takis'
p72
S'hand_matPile'
p73
g3
(lp74
g5
atp75
a(F118.56
I2
S'Anna'
p76
S'can_pulp'
p77
g3
(lp78
g10
ag11
atp79
a(F124.76
I1
S'Takis'
p80
S'hand_mat'
p81
g3
(lp82
tp83
a(F125.72
I2
S'Anna'
p84
S'canful_mat'
p85
g3
(lp86
tp87
a(F126.37
I1
S'Takis'
p88
S'hand_mat'
p89
g3
(lp90
g20
ag21
atp91
a(F126.37
I2
S'Anna'
p92
g85
g3
g90
tp93
a(F126.5
I1
S'Takis'
p94
g89
g3
(lp95
tp96
a(F126.5
I2
S'Anna'
p97
S'can_mat'
p98
g3
g95
tp99
a(F133.38
I1
S'Takis'
p100
S'hand_mat'
p101
g3
(lp102
g28
atp103
a(F145.99
I2
S'Anna'
p104
S'hand_mat'
p105
g3
(lp106
g28
atp107
a(F156.66
I2
S'Anna'
p108
S'mat_trayR'
p109
g66
(lp110
Vloading_pressR[3]
p111
aVdropping_mat
p112
atp113
a(F192.94
I1
S'Takis'
p114
S'mat_trayR'
p115
g66
(lp116
g111
ag112
atp117
a.